; Function Attrs: inlinehint nounwind sspstrong uwtable
define internal noundef i64 @empty_str_alloc(i64 noundef %0) #4 {
  %2 = alloca i32, align 4
  %3 = load i16, ptr @ruby_string__create_semaphore, align 2, !tbaa !61
  %.not = icmp eq i16 %3, 0
  br i1 %.not, label %7, label %4, !prof !40

4:                                                ; preds = %1
  call void @llvm.lifetime.start.p0(i64 4, ptr nonnull %2) #29
  %5 = call ptr @rb_source_location_cstr(ptr noundef nonnull %2) #29
  %.not6 = icmp eq ptr %5, null
  %spec.store.select = select i1 %.not6, ptr @.str.5, ptr %5
  call void asm sideeffect "", "*m,~{dirflag},~{fpsr},~{flags}"(ptr nonnull elementtype(i16) @ruby_string__create_semaphore) #29, !srcloc !528
  %6 = load i32, ptr %2, align 4, !tbaa !49
  call void asm sideeffect ".altmacro\0A.macro _SDT_SIGN x\0A.pushsection .note.stapsdt,\22\22,\22note\22\0A.iflt \\x\0A.ascii \22-\22\0A.endif\0A.popsection\0A.endm\0A.macro _SDT_SIZE_ x\0A.pushsection .note.stapsdt,\22\22,\22note\22\0A.ascii \22\\x\22\0A.popsection\0A.endm\0A.macro _SDT_SIZE x\0A_SDT_SIZE_ %((-(-\\x*((-\\x>0)-(-\\x<0))))>>8)\0A.endm\0A.macro _SDT_TYPE_ x\0A.pushsection .note.stapsdt,\22\22,\22note\22\0A.ifc 8,\\x\0A.ascii \22f\22\0A.endif\0A.ascii \22@\22\0A.popsection\0A.endm\0A.macro _SDT_TYPE x\0A_SDT_TYPE_ %((\\x)&(0xff))\0A.endm\0A990: nop\0A.pushsection .note.stapsdt,\22?\22,\22note\22\0A.balign 4\0A.4byte 992f-991f,994f-993f,3\0A991: .asciz \22stapsdt\22\0A992: .balign 4\0A993: .8byte 990b\0A.8byte _.stapsdt.base\0A.8byte ruby_string__create_semaphore\0A.asciz \22ruby\22\0A.asciz \22string__create\22\0A_SDT_SIGN ${0:n}\0A_SDT_SIZE ${0:n}\0A_SDT_TYPE ${0:n}\0A.ascii \22$1\22\0A.ascii \22\\x20\22\0A_SDT_SIGN ${2:n}\0A_SDT_SIZE ${2:n}\0A_SDT_TYPE ${2:n}\0A.ascii \22$3\22\0A.ascii \22\\x20\22\0A_SDT_SIGN ${4:n}\0A_SDT_SIZE ${4:n}\0A_SDT_TYPE ${4:n}\0A.ascii \22$5\22\0A.ascii \22\\x00\22\0A.purgem _SDT_SIGN\0A.purgem _SDT_SIZE_\0A.purgem _SDT_SIZE\0A.purgem _SDT_TYPE_\0A.purgem _SDT_TYPE\0A994: .balign 4\0A.popsection\0A", "n,norfxy,n,norfxy,n,norfxy,~{dirflag},~{fpsr},~{flags}"(i32 1025, i32 0, i32 -2053, ptr nonnull %spec.store.select, i32 1025, i32 %6) #29, !srcloc !529
  call void asm sideeffect ".ifndef _.stapsdt.base\0A.pushsection .stapsdt.base,\22aG\22,\22progbits\22,.stapsdt.base,comdat\0A.weak _.stapsdt.base\0A.hidden _.stapsdt.base\0A_.stapsdt.base: .space 1\0A.size _.stapsdt.base,1\0A.popsection\0A.endif\0A", "~{dirflag},~{fpsr},~{flags}"() #29, !srcloc !530
  call void @llvm.lifetime.end.p0(i64 4, ptr nonnull %2) #29
  br label %7

7:                                                ; preds = %1, %4
  %8 = call align 8 ptr @llvm.threadlocal.address.p0(ptr align 8 @ruby_current_ec)
  %9 = load ptr, ptr %8, align 8, !tbaa !66
  %10 = call i64 @rb_wb_protected_newobj_of(ptr noundef %9, i64 noundef %0, i64 noundef 5, i64 noundef 24) #29
  %11 = inttoptr i64 %10 to ptr
  %12 = getelementptr inbounds nuw i8, ptr %11, i64 24
  %13 = call i64 @rb_gc_obj_slot_size(i64 noundef %10) #29
  %14 = add i64 %13, -24
  call void @llvm.memset.p0.i64(ptr noundef nonnull align 1 %12, i8 noundef 0, i64 noundef %14, i1 noundef false) #29
  %15 = load i64, ptr %11, align 8, !tbaa !7
  %16 = and i64 %15, -3145729
  %17 = or disjoint i64 %16, 1048576
  store i64 %17, ptr %11, align 8, !tbaa !7
  ret i64 %10
}